target datalayout = "e-m:e-p270:32:32-p271:32:32-p272:64:64-i64:64-i128:128-f80:128-n8:16:32:64-S128"
target triple = "x86_64-pc-linux-gnu"

%class.JVMFlag = type { ptr, ptr, i32, i32 }
%class.JVMTypedFlagLimit = type { %class.JVMFlagLimit, i64, i64 }
%class.JVMFlagLimit = type { i16, i8, i8 }

@.str = private unnamed_addr constant [60 x i8] c"[                           ...                           ]\00", align 1
@_ZN7JVMFlag5flagsE = external global ptr, align 8
@_ZN12JVMFlagLimit13_last_checkedE = external global i32, align 4
@_ZN12JVMFlagLimit10flagLimitsE = external global ptr, align 8
@_ZN6OSInfo13_vm_page_sizeE = external global i64, align 8
@_ZN6OSInfo26_vm_allocation_granularityE = external global i64, align 8

; Function Attrs: mustprogress nounwind uwtable
define linkonce_odr hidden noundef ptr @_ZN12JVMFlagLimit2atE12JVMFlagsEnum(i32 noundef %0) #1 comdat align 2 {
  %2 = alloca i32, align 4
  store i32 %0, ptr %2, align 4
  %3 = load i32, ptr %2, align 4
  call void @_ZN7JVMFlag22assert_valid_flag_enumE12JVMFlagsEnum(i32 noundef %3)
  %4 = load ptr, ptr @_ZN12JVMFlagLimit10flagLimitsE, align 8
  %5 = load i32, ptr %2, align 4
  %6 = sext i32 %5 to i64
  %7 = getelementptr inbounds ptr, ptr %4, i64 %6
  %8 = load ptr, ptr %7, align 8
  ret ptr %8
}

; Function Attrs: mustprogress nounwind uwtable
define linkonce_odr hidden noundef ptr @_ZN12JVMFlagLimit11get_kind_atE12JVMFlagsEnumi(i32 noundef %0, i32 noundef %1) #1 comdat align 2 {
  %3 = alloca ptr, align 8
  %4 = alloca i32, align 4
  %5 = alloca i32, align 4
  %6 = alloca ptr, align 8
  store i32 %0, ptr %4, align 4
  store i32 %1, ptr %5, align 4
  %7 = load i32, ptr %4, align 4
  %8 = call noundef ptr @_ZN12JVMFlagLimit2atE12JVMFlagsEnum(i32 noundef %7)
  store ptr %8, ptr %6, align 8
  %9 = load ptr, ptr %6, align 8
  %10 = icmp ne ptr %9, null
  br i1 %10, label %11, label %22

11:                                               ; preds = %2
  %12 = load ptr, ptr %6, align 8
  %13 = getelementptr inbounds %class.JVMFlagLimit, ptr %12, i32 0, i32 2
  %14 = load i8, ptr %13, align 1
  %15 = sext i8 %14 to i32
  %16 = load i32, ptr %5, align 4
  %17 = and i32 %15, %16
  %18 = icmp ne i32 %17, 0
  br i1 %18, label %19, label %22

19:                                               ; preds = %11
  %20 = load i32, ptr %4, align 4
  store i32 %20, ptr @_ZN12JVMFlagLimit13_last_checkedE, align 4
  %21 = load ptr, ptr %6, align 8
  store ptr %21, ptr %3, align 8
  br label %23

22:                                               ; preds = %11, %2
  store ptr null, ptr %3, align 8
  br label %23

23:                                               ; preds = %22, %19
  %24 = load ptr, ptr %3, align 8
  ret ptr %24
}

; Function Attrs: mustprogress nounwind uwtable
define linkonce_odr hidden void @_ZN7JVMFlag22assert_valid_flag_enumE12JVMFlagsEnum(i32 noundef %0) #1 comdat align 2 {
  %2 = alloca i32, align 4
  store i32 %0, ptr %2, align 4
  ret void
}

; Function Attrs: mustprogress nounwind uwtable
define linkonce_odr hidden noundef i64 @_ZN6OSInfo25vm_allocation_granularityEv() #1 comdat align 2 {
  %1 = load i64, ptr @_ZN6OSInfo26_vm_allocation_granularityE, align 8
  ret i64 %1
}

; Function Attrs: mustprogress nounwind uwtable
define linkonce_odr hidden noundef i32 @_ZNK7JVMFlag4typeEv(ptr noundef nonnull align 8 dereferenceable(24) %0) #1 comdat align 2 {
  %2 = alloca ptr, align 8
  store ptr %0, ptr %2, align 8
  %3 = load ptr, ptr %2, align 8
  %4 = getelementptr inbounds %class.JVMFlag, ptr %3, i32 0, i32 3
  %5 = load i32, ptr %4, align 4
  ret i32 %5
}

; Function Attrs: mustprogress nounwind uwtable
define linkonce_odr hidden void @_ZN12JVMFlagLimitC2Eis22JVMFlagConstraintPhasec(ptr noundef nonnull align 2 dereferenceable(4) %0, i32 noundef %1, i16 noundef signext %2, i8 noundef signext %3, i8 noundef signext %4) unnamed_addr #1 comdat align 2 {
  %6 = alloca ptr, align 8
  %7 = alloca i32, align 4
  %8 = alloca i16, align 2
  %9 = alloca i8, align 1
  %10 = alloca i8, align 1
  store ptr %0, ptr %6, align 8
  store i32 %1, ptr %7, align 4
  store i16 %2, ptr %8, align 2
  store i8 %3, ptr %9, align 1
  store i8 %4, ptr %10, align 1
  %11 = load ptr, ptr %6, align 8
  %12 = getelementptr inbounds %class.JVMFlagLimit, ptr %11, i32 0, i32 0
  %13 = load i16, ptr %8, align 2
  store i16 %13, ptr %12, align 2
  %14 = getelementptr inbounds %class.JVMFlagLimit, ptr %11, i32 0, i32 1
  %15 = load i8, ptr %9, align 1
  store i8 %15, ptr %14, align 2
  %16 = getelementptr inbounds %class.JVMFlagLimit, ptr %11, i32 0, i32 2
  %17 = load i8, ptr %10, align 1
  store i8 %17, ptr %16, align 1
  ret void
}

; Function Attrs: mustprogress nounwind uwtable
define linkonce_odr hidden noundef i64 @_ZN6OSInfo12vm_page_sizeEv() #1 comdat align 2 {
  %1 = load i64, ptr @_ZN6OSInfo13_vm_page_sizeE, align 8
  ret i64 %1
}

; Function Attrs: mustprogress nounwind uwtable
define linkonce_odr hidden noundef ptr @_ZN12JVMFlagLimit17get_constraint_atE12JVMFlagsEnum(i32 noundef %0) #1 comdat align 2 {
  %2 = alloca i32, align 4
  store i32 %0, ptr %2, align 4
  %3 = load i32, ptr %2, align 4
  %4 = call noundef ptr @_ZN12JVMFlagLimit11get_kind_atE12JVMFlagsEnumi(i32 noundef %3, i32 noundef 2)
  ret ptr %4
}

; Function Attrs: mustprogress nounwind uwtable
define linkonce_odr hidden noundef ptr @_ZN12JVMFlagLimit12get_range_atE12JVMFlagsEnum(i32 noundef %0) #1 comdat align 2 {
  %2 = alloca i32, align 4
  store i32 %0, ptr %2, align 4
  %3 = load i32, ptr %2, align 4
  %4 = call noundef ptr @_ZN12JVMFlagLimit11get_kind_atE12JVMFlagsEnumi(i32 noundef %3, i32 noundef 1)
  ret ptr %4
}

; Function Attrs: mustprogress nounwind uwtable
define linkonce_odr hidden noundef i32 @_ZNK7JVMFlag9flag_enumEv(ptr noundef nonnull align 8 dereferenceable(24) %0) #1 comdat align 2 {
  %2 = alloca ptr, align 8
  %3 = alloca i32, align 4
  store ptr %0, ptr %2, align 8
  %4 = load ptr, ptr %2, align 8
  %5 = load ptr, ptr @_ZN7JVMFlag5flagsE, align 8
  %6 = ptrtoint ptr %4 to i64
  %7 = ptrtoint ptr %5 to i64
  %8 = sub i64 %6, %7
  %9 = sdiv exact i64 %8, 24
  %10 = trunc i64 %9 to i32
  store i32 %10, ptr %3, align 4
  %11 = load i32, ptr %3, align 4
  call void @_ZN7JVMFlag22assert_valid_flag_enumE12JVMFlagsEnum(i32 noundef %11)
  %12 = load i32, ptr %3, align 4
  ret i32 %12
}

; Function Attrs: mustprogress nounwind uwtable
define linkonce_odr hidden noundef i64 @_ZN2os25vm_allocation_granularityEv() #1 comdat align 2 {
  %1 = call noundef i64 @_ZN6OSInfo25vm_allocation_granularityEv()
  ret i64 %1
}

; Function Attrs: mustprogress nounwind uwtable
define linkonce_odr hidden noundef ptr @_ZN13JVMFlagAccess11access_implEPK7JVMFlag(ptr noundef %0) #1 comdat align 2 {
  %2 = alloca ptr, align 8
  %3 = alloca i32, align 4
  %4 = alloca i32, align 4
  store ptr %0, ptr %2, align 8
  %5 = load ptr, ptr %2, align 8
  %6 = call noundef i32 @_ZNK7JVMFlag4typeEv(ptr noundef nonnull align 8 dereferenceable(24) %5)
  store i32 %6, ptr %3, align 4
  store i32 10, ptr %4, align 4
  %7 = load i32, ptr %3, align 4
  %8 = sext i32 %7 to i64
  %9 = getelementptr inbounds [10 x ptr], ptr @_ZL12flag_accesss, i64 0, i64 %8
  %10 = load ptr, ptr %9, align 8
  ret ptr %10
}

; Function Attrs: mustprogress nounwind uwtable
define linkonce_odr hidden void @_ZN17JVMTypedFlagLimitImEC2Eimm(ptr noundef nonnull align 8 dereferenceable(24) %0, i32 noundef %1, i64 noundef %2, i64 noundef %3) unnamed_addr #1 comdat align 2 {
  %5 = alloca ptr, align 8
  %6 = alloca i32, align 4
  %7 = alloca i64, align 8
  %8 = alloca i64, align 8
  store ptr %0, ptr %5, align 8
  store i32 %1, ptr %6, align 4
  store i64 %2, ptr %7, align 8
  store i64 %3, ptr %8, align 8
  %9 = load ptr, ptr %5, align 8
  %10 = load i32, ptr %6, align 4
  call void @_ZN12JVMFlagLimitC2Eis22JVMFlagConstraintPhasec(ptr noundef nonnull align 2 dereferenceable(4) %9, i32 noundef %10, i16 noundef signext 0, i8 noundef signext 0, i8 noundef signext 1)
  %11 = getelementptr inbounds %class.JVMTypedFlagLimit, ptr %9, i32 0, i32 1
  %12 = load i64, ptr %7, align 8
  store i64 %12, ptr %11, align 8
  %13 = getelementptr inbounds %class.JVMTypedFlagLimit, ptr %9, i32 0, i32 2
  %14 = load i64, ptr %8, align 8
  store i64 %14, ptr %13, align 8
  ret void
}

; Function Attrs: mustprogress nounwind uwtable
define linkonce_odr hidden noundef i64 @_ZN2os12vm_page_sizeEv() #1 comdat align 2 {
  %1 = call noundef i64 @_ZN6OSInfo12vm_page_sizeEv()
  ret i64 %1
}

; Function Attrs: mustprogress nounwind uwtable
define linkonce_odr hidden noundef ptr @_ZN12JVMFlagLimit14get_constraintEPK7JVMFlag(ptr noundef %0) #1 comdat align 2 {
  %2 = alloca ptr, align 8
  store ptr %0, ptr %2, align 8
  %3 = load ptr, ptr %2, align 8
  %4 = call noundef i32 @_ZNK7JVMFlag9flag_enumEv(ptr noundef nonnull align 8 dereferenceable(24) %3)
  %5 = call noundef ptr @_ZN12JVMFlagLimit17get_constraint_atE12JVMFlagsEnum(i32 noundef %4)
  ret ptr %5
}

; Function Attrs: mustprogress nounwind uwtable
define hidden void @_ZN13JVMFlagAccess11print_rangeEP12outputStreamPK7JVMFlagPK12JVMFlagLimit(ptr noundef %0, ptr noundef %1, ptr noundef %2) #1 align 2 {
  %4 = alloca ptr, align 8
  %5 = alloca ptr, align 8
  %6 = alloca ptr, align 8
  store ptr %0, ptr %4, align 8
  store ptr %1, ptr %5, align 8
  store ptr %2, ptr %6, align 8
  %7 = load ptr, ptr %5, align 8
  %8 = call noundef ptr @_ZN13JVMFlagAccess11access_implEPK7JVMFlag(ptr noundef %7)
  %9 = load ptr, ptr %4, align 8
  %10 = load ptr, ptr %6, align 8
  %11 = load ptr, ptr %8, align 8
  %12 = getelementptr inbounds ptr, ptr %11, i64 2
  %13 = load ptr, ptr %12, align 8
  call void %13(ptr noundef nonnull align 8 dereferenceable(8) %8, ptr noundef %9, ptr noundef %10)
  ret void
}

; Function Attrs: mustprogress nounwind uwtable
define linkonce_odr hidden noundef ptr @_ZN12JVMFlagLimit9get_rangeEPK7JVMFlag(ptr noundef %0) #1 comdat align 2 {
  %2 = alloca ptr, align 8
  store ptr %0, ptr %2, align 8
  %3 = load ptr, ptr %2, align 8
  %4 = call noundef i32 @_ZNK7JVMFlag9flag_enumEv(ptr noundef nonnull align 8 dereferenceable(24) %3)
  %5 = call noundef ptr @_ZN12JVMFlagLimit12get_range_atE12JVMFlagsEnum(i32 noundef %4)
  ret ptr %5
}

; Function Attrs: mustprogress nounwind uwtable
define hidden void @_ZN13JVMFlagAccess11print_rangeEP12outputStreamPK7JVMFlag(ptr noundef %0, ptr noundef %1) #1 align 2 {
  %3 = alloca ptr, align 8
  %4 = alloca ptr, align 8
  %5 = alloca ptr, align 8
  %6 = alloca ptr, align 8
  %7 = alloca ptr, align 8
  %8 = alloca i64, align 8
  %9 = alloca i64, align 8
  %10 = alloca %class.JVMTypedFlagLimit, align 8
  %11 = alloca i64, align 8
  %12 = alloca i64, align 8
  %13 = alloca %class.JVMTypedFlagLimit, align 8
  store ptr %0, ptr %3, align 8
  store ptr %1, ptr %4, align 8
  %14 = load ptr, ptr %4, align 8
  %15 = call noundef ptr @_ZN12JVMFlagLimit9get_rangeEPK7JVMFlag(ptr noundef %14)
  store ptr %15, ptr %5, align 8
  %16 = load ptr, ptr %5, align 8
  %17 = icmp ne ptr %16, null
  br i1 %17, label %18, label %22

18:                                               ; preds = %2
  %19 = load ptr, ptr %3, align 8
  %20 = load ptr, ptr %4, align 8
  %21 = load ptr, ptr %5, align 8
  call void @_ZN13JVMFlagAccess11print_rangeEP12outputStreamPK7JVMFlagPK12JVMFlagLimit(ptr noundef %19, ptr noundef %20, ptr noundef %21)
  br label %67

22:                                               ; preds = %2
  %23 = load ptr, ptr %4, align 8
  %24 = call noundef ptr @_ZN12JVMFlagLimit14get_constraintEPK7JVMFlag(ptr noundef %23)
  store ptr %24, ptr %6, align 8
  %25 = load ptr, ptr %6, align 8
  %26 = icmp ne ptr %25, null
  br i1 %26, label %27, label %64

27:                                               ; preds = %22
  %28 = load ptr, ptr %6, align 8
  %29 = call noundef ptr @_ZNK12JVMFlagLimit15constraint_funcEv(ptr noundef nonnull align 2 dereferenceable(4) %28)
  store ptr %29, ptr %7, align 8
  %30 = load ptr, ptr %7, align 8
  %31 = icmp eq ptr %30, @_Z24VMPageSizeConstraintFuncmb
  br i1 %31, label %32, label %42

32:                                               ; preds = %27
  %33 = call noundef i64 @_ZN2os12vm_page_sizeEv()
  store i64 %33, ptr %8, align 8
  store i64 -1, ptr %9, align 8
  %34 = load i64, ptr %8, align 8
  %35 = load i64, ptr %9, align 8
  call void @_ZN17JVMTypedFlagLimitImEC2Eimm(ptr noundef nonnull align 8 dereferenceable(24) %10, i32 noundef 0, i64 noundef %34, i64 noundef %35)
  %36 = load ptr, ptr %4, align 8
  %37 = call noundef ptr @_ZN13JVMFlagAccess11access_implEPK7JVMFlag(ptr noundef %36)
  %38 = load ptr, ptr %3, align 8
  %39 = load ptr, ptr %37, align 8
  %40 = getelementptr inbounds ptr, ptr %39, i64 2
  %41 = load ptr, ptr %40, align 8
  call void %41(ptr noundef nonnull align 8 dereferenceable(8) %37, ptr noundef %38, ptr noundef %10)
  br label %63

42:                                               ; preds = %27
  %43 = load ptr, ptr %7, align 8
  %44 = icmp eq ptr %43, @_Z39NUMAInterleaveGranularityConstraintFuncmb
  br i1 %44, label %45, label %55

45:                                               ; preds = %42
  %46 = call noundef i64 @_ZN2os25vm_allocation_granularityEv()
  store i64 %46, ptr %11, align 8
  store i64 8796093022208, ptr %12, align 8
  %47 = load i64, ptr %11, align 8
  %48 = load i64, ptr %12, align 8
  call void @_ZN17JVMTypedFlagLimitImEC2Eimm(ptr noundef nonnull align 8 dereferenceable(24) %13, i32 noundef 0, i64 noundef %47, i64 noundef %48)
  %49 = load ptr, ptr %4, align 8
  %50 = call noundef ptr @_ZN13JVMFlagAccess11access_implEPK7JVMFlag(ptr noundef %49)
  %51 = load ptr, ptr %3, align 8
  %52 = load ptr, ptr %50, align 8
  %53 = getelementptr inbounds ptr, ptr %52, i64 2
  %54 = load ptr, ptr %53, align 8
  call void %54(ptr noundef nonnull align 8 dereferenceable(8) %50, ptr noundef %51, ptr noundef %13)
  br label %62

55:                                               ; preds = %42
  %56 = load ptr, ptr %4, align 8
  %57 = call noundef ptr @_ZN13JVMFlagAccess11access_implEPK7JVMFlag(ptr noundef %56)
  %58 = load ptr, ptr %3, align 8
  %59 = load ptr, ptr %57, align 8
  %60 = getelementptr inbounds ptr, ptr %59, i64 3
  %61 = load ptr, ptr %60, align 8
  call void %61(ptr noundef nonnull align 8 dereferenceable(8) %57, ptr noundef %58)
  br label %62

62:                                               ; preds = %55, %45
  br label %63

63:                                               ; preds = %62, %32
  br label %66

64:                                               ; preds = %22
  %65 = load ptr, ptr %3, align 8
  call void (ptr, ptr, ...) @_ZN12outputStream5printEPKcz(ptr noundef nonnull align 8 dereferenceable(56) %65, ptr noundef @.str)
  br label %66

66:                                               ; preds = %64, %63
  br label %67

67:                                               ; preds = %66, %18
  ret void
}