; Function Attrs: mustprogress nounwind uwtable
define hidden void @_ZN13JVMFlagAccess11print_rangeEP12outputStreamPK7JVMFlag(ptr noundef %0, ptr noundef %1) local_unnamed_addr #0 align 2 {
  %3 = alloca %class.JVMTypedFlagLimit, align 8
  %4 = alloca %class.JVMTypedFlagLimit, align 8
  %5 = load ptr, ptr @_ZN7JVMFlag5flagsE, align 8
  %6 = ptrtoint ptr %1 to i64
  %7 = ptrtoint ptr %5 to i64
  %8 = sub i64 %6, %7
  %9 = sdiv exact i64 %8, 24
  %10 = trunc i64 %9 to i32
  %11 = load ptr, ptr @_ZN12JVMFlagLimit10flagLimitsE, align 8
  %sext.i = shl i64 %9, 32
  %12 = ashr exact i64 %sext.i, 29
  %13 = getelementptr inbounds i8, ptr %11, i64 %12
  %14 = load ptr, ptr %13, align 8
  %.not.i.i.i = icmp eq ptr %14, null
  br i1 %.not.i.i.i, label %.thread, label %15

15:                                               ; preds = %2
  %16 = getelementptr inbounds i8, ptr %14, i64 3
  %17 = load i8, ptr %16, align 1
  %18 = and i8 %17, 1
  %.not7.i.i.i = icmp eq i8 %18, 0
  br i1 %.not7.i.i.i, label %28, label %19

19:                                               ; preds = %15
  store i32 %10, ptr @_ZN12JVMFlagLimit13_last_checkedE, align 4
  %20 = getelementptr inbounds i8, ptr %1, i64 20
  %21 = load i32, ptr %20, align 4
  %22 = sext i32 %21 to i64
  %23 = getelementptr inbounds [10 x ptr], ptr @_ZL12flag_accesss, i64 0, i64 %22
  %24 = load ptr, ptr %23, align 8
  %25 = load ptr, ptr %24, align 8
  %26 = getelementptr inbounds i8, ptr %25, i64 16
  %27 = load ptr, ptr %26, align 8
  tail call void %27(ptr noundef nonnull align 8 dereferenceable(8) %24, ptr noundef %0, ptr noundef nonnull %14) #10
  br label %72

28:                                               ; preds = %15
  %29 = and i8 %17, 2
  %.not7.i.i.i25 = icmp eq i8 %29, 0
  br i1 %.not7.i.i.i25, label %.thread, label %30

30:                                               ; preds = %28
  store i32 %10, ptr @_ZN12JVMFlagLimit13_last_checkedE, align 4
  %31 = tail call noundef ptr @_ZNK12JVMFlagLimit15constraint_funcEv(ptr noundef nonnull align 2 dereferenceable(4) %14) #10
  %32 = icmp eq ptr %31, @_Z24VMPageSizeConstraintFuncmb
  br i1 %32, label %33, label %47

33:                                               ; preds = %30
  %34 = load i64, ptr @_ZN6OSInfo13_vm_page_sizeE, align 8
  store i16 0, ptr %3, align 8
  %35 = getelementptr inbounds i8, ptr %3, i64 2
  store i8 0, ptr %35, align 2
  %36 = getelementptr inbounds i8, ptr %3, i64 3
  store i8 1, ptr %36, align 1
  %37 = getelementptr inbounds i8, ptr %3, i64 8
  store i64 %34, ptr %37, align 8
  %38 = getelementptr inbounds i8, ptr %3, i64 16
  store i64 -1, ptr %38, align 8
  %39 = getelementptr inbounds i8, ptr %1, i64 20
  %40 = load i32, ptr %39, align 4
  %41 = sext i32 %40 to i64
  %42 = getelementptr inbounds [10 x ptr], ptr @_ZL12flag_accesss, i64 0, i64 %41
  %43 = load ptr, ptr %42, align 8
  %44 = load ptr, ptr %43, align 8
  %45 = getelementptr inbounds i8, ptr %44, i64 16
  %46 = load ptr, ptr %45, align 8
  call void %46(ptr noundef nonnull align 8 dereferenceable(8) %43, ptr noundef %0, ptr noundef nonnull %3) #10
  br label %72

47:                                               ; preds = %30
  %48 = icmp eq ptr %31, @_Z39NUMAInterleaveGranularityConstraintFuncmb
  br i1 %48, label %49, label %63

49:                                               ; preds = %47
  %50 = load i64, ptr @_ZN6OSInfo26_vm_allocation_granularityE, align 8
  store i16 0, ptr %4, align 8
  %51 = getelementptr inbounds i8, ptr %4, i64 2
  store i8 0, ptr %51, align 2
  %52 = getelementptr inbounds i8, ptr %4, i64 3
  store i8 1, ptr %52, align 1
  %53 = getelementptr inbounds i8, ptr %4, i64 8
  store i64 %50, ptr %53, align 8
  %54 = getelementptr inbounds i8, ptr %4, i64 16
  store i64 8796093022208, ptr %54, align 8
  %55 = getelementptr inbounds i8, ptr %1, i64 20
  %56 = load i32, ptr %55, align 4
  %57 = sext i32 %56 to i64
  %58 = getelementptr inbounds [10 x ptr], ptr @_ZL12flag_accesss, i64 0, i64 %57
  %59 = load ptr, ptr %58, align 8
  %60 = load ptr, ptr %59, align 8
  %61 = getelementptr inbounds i8, ptr %60, i64 16
  %62 = load ptr, ptr %61, align 8
  call void %62(ptr noundef nonnull align 8 dereferenceable(8) %59, ptr noundef %0, ptr noundef nonnull %4) #10
  br label %72

63:                                               ; preds = %47
  %64 = getelementptr inbounds i8, ptr %1, i64 20
  %65 = load i32, ptr %64, align 4
  %66 = sext i32 %65 to i64
  %67 = getelementptr inbounds [10 x ptr], ptr @_ZL12flag_accesss, i64 0, i64 %66
  %68 = load ptr, ptr %67, align 8
  %69 = load ptr, ptr %68, align 8
  %70 = getelementptr inbounds i8, ptr %69, i64 24
  %71 = load ptr, ptr %70, align 8
  tail call void %71(ptr noundef nonnull align 8 dereferenceable(8) %68, ptr noundef %0) #10
  br label %72

.thread:                                          ; preds = %2, %28
  tail call void (ptr, ptr, ...) @_ZN12outputStream5printEPKcz(ptr noundef nonnull align 8 dereferenceable(56) %0, ptr noundef nonnull @.str) #10
  br label %72

72:                                               ; preds = %.thread, %49, %63, %33, %19
  ret void
}